target datalayout = "e-m:e-p270:32:32-p271:32:32-p272:64:64-i64:64-i128:128-f80:128-n8:16:32:64-S128"
target triple = "x86_64-unknown-linux-gnu"

%struct.termios = type { i32, i32, i32, i32, i8, [32 x i8], i32, i32 }

; Function Attrs: nounwind sspstrong uwtable
define internal void @tty_serial_init(i32 noundef %fd, i32 noundef %speed, i32 noundef %parity, i32 noundef %data_bits, i32 noundef %stop_bits) #0 {
entry:
  %fd.addr = alloca i32, align 4
  %speed.addr = alloca i32, align 4
  %parity.addr = alloca i32, align 4
  %data_bits.addr = alloca i32, align 4
  %stop_bits.addr = alloca i32, align 4
  %tty = alloca %struct.termios, align 4
  %spd = alloca i32, align 4
  store i32 %fd, ptr %fd.addr, align 4
  store i32 %speed, ptr %speed.addr, align 4
  store i32 %parity, ptr %parity.addr, align 4
  store i32 %data_bits, ptr %data_bits.addr, align 4
  store i32 %stop_bits, ptr %stop_bits.addr, align 4
  call void @llvm.memset.p0.i64(ptr align 4 %tty, i8 0, i64 60, i1 false)
  %0 = load i32, ptr %fd.addr, align 4
  %call = call i32 @tcgetattr(i32 noundef %0, ptr noundef %tty) #8
  %1 = load i32, ptr %speed.addr, align 4
  %mul = mul i32 %1, 10
  %div = sdiv i32 %mul, 11
  store i32 %div, ptr %speed.addr, align 4
  %2 = load i32, ptr %speed.addr, align 4
  %cmp = icmp sle i32 %2, 50
  br i1 %cmp, label %if.then, label %if.end

if.then:                                          ; preds = %entry
  store i32 1, ptr %spd, align 4
  br label %done

if.end:                                           ; preds = %entry
  %3 = load i32, ptr %speed.addr, align 4
  %cmp1 = icmp sle i32 %3, 75
  br i1 %cmp1, label %if.then2, label %if.end3

if.then2:                                         ; preds = %if.end
  store i32 2, ptr %spd, align 4
  br label %done

if.end3:                                          ; preds = %if.end
  %4 = load i32, ptr %speed.addr, align 4
  %cmp4 = icmp sle i32 %4, 110
  br i1 %cmp4, label %if.then5, label %if.end6

if.then5:                                         ; preds = %if.end3
  store i32 3, ptr %spd, align 4
  br label %done

if.end6:                                          ; preds = %if.end3
  %5 = load i32, ptr %speed.addr, align 4
  %cmp7 = icmp sle i32 %5, 134
  br i1 %cmp7, label %if.then8, label %if.end9

if.then8:                                         ; preds = %if.end6
  store i32 4, ptr %spd, align 4
  br label %done

if.end9:                                          ; preds = %if.end6
  %6 = load i32, ptr %speed.addr, align 4
  %cmp10 = icmp sle i32 %6, 150
  br i1 %cmp10, label %if.then11, label %if.end12

if.then11:                                        ; preds = %if.end9
  store i32 5, ptr %spd, align 4
  br label %done

if.end12:                                         ; preds = %if.end9
  %7 = load i32, ptr %speed.addr, align 4
  %cmp13 = icmp sle i32 %7, 200
  br i1 %cmp13, label %if.then14, label %if.end15

if.then14:                                        ; preds = %if.end12
  store i32 6, ptr %spd, align 4
  br label %done

if.end15:                                         ; preds = %if.end12
  %8 = load i32, ptr %speed.addr, align 4
  %cmp16 = icmp sle i32 %8, 300
  br i1 %cmp16, label %if.then17, label %if.end18

if.then17:                                        ; preds = %if.end15
  store i32 7, ptr %spd, align 4
  br label %done

if.end18:                                         ; preds = %if.end15
  %9 = load i32, ptr %speed.addr, align 4
  %cmp19 = icmp sle i32 %9, 600
  br i1 %cmp19, label %if.then20, label %if.end21

if.then20:                                        ; preds = %if.end18
  store i32 8, ptr %spd, align 4
  br label %done

if.end21:                                         ; preds = %if.end18
  %10 = load i32, ptr %speed.addr, align 4
  %cmp22 = icmp sle i32 %10, 1200
  br i1 %cmp22, label %if.then23, label %if.end24

if.then23:                                        ; preds = %if.end21
  store i32 9, ptr %spd, align 4
  br label %done

if.end24:                                         ; preds = %if.end21
  %11 = load i32, ptr %speed.addr, align 4
  %cmp25 = icmp sle i32 %11, 1800
  br i1 %cmp25, label %if.then26, label %if.end27

if.then26:                                        ; preds = %if.end24
  store i32 10, ptr %spd, align 4
  br label %done

if.end27:                                         ; preds = %if.end24
  %12 = load i32, ptr %speed.addr, align 4
  %cmp28 = icmp sle i32 %12, 2400
  br i1 %cmp28, label %if.then29, label %if.end30

if.then29:                                        ; preds = %if.end27
  store i32 11, ptr %spd, align 4
  br label %done

if.end30:                                         ; preds = %if.end27
  %13 = load i32, ptr %speed.addr, align 4
  %cmp31 = icmp sle i32 %13, 4800
  br i1 %cmp31, label %if.then32, label %if.end33

if.then32:                                        ; preds = %if.end30
  store i32 12, ptr %spd, align 4
  br label %done

if.end33:                                         ; preds = %if.end30
  %14 = load i32, ptr %speed.addr, align 4
  %cmp34 = icmp sle i32 %14, 9600
  br i1 %cmp34, label %if.then35, label %if.end36

if.then35:                                        ; preds = %if.end33
  store i32 13, ptr %spd, align 4
  br label %done

if.end36:                                         ; preds = %if.end33
  %15 = load i32, ptr %speed.addr, align 4
  %cmp37 = icmp sle i32 %15, 19200
  br i1 %cmp37, label %if.then38, label %if.end39

if.then38:                                        ; preds = %if.end36
  store i32 14, ptr %spd, align 4
  br label %done

if.end39:                                         ; preds = %if.end36
  %16 = load i32, ptr %speed.addr, align 4
  %cmp40 = icmp sle i32 %16, 38400
  br i1 %cmp40, label %if.then41, label %if.end42

if.then41:                                        ; preds = %if.end39
  store i32 15, ptr %spd, align 4
  br label %done

if.end42:                                         ; preds = %if.end39
  %17 = load i32, ptr %speed.addr, align 4
  %cmp43 = icmp sle i32 %17, 57600
  br i1 %cmp43, label %if.then44, label %if.end45

if.then44:                                        ; preds = %if.end42
  store i32 4097, ptr %spd, align 4
  br label %done

if.end45:                                         ; preds = %if.end42
  %18 = load i32, ptr %speed.addr, align 4
  %cmp46 = icmp sle i32 %18, 115200
  br i1 %cmp46, label %if.then47, label %if.end48

if.then47:                                        ; preds = %if.end45
  store i32 4098, ptr %spd, align 4
  br label %done

if.end48:                                         ; preds = %if.end45
  %19 = load i32, ptr %speed.addr, align 4
  %cmp49 = icmp sle i32 %19, 230400
  br i1 %cmp49, label %if.then50, label %if.end51

if.then50:                                        ; preds = %if.end48
  store i32 4099, ptr %spd, align 4
  br label %done

if.end51:                                         ; preds = %if.end48
  %20 = load i32, ptr %speed.addr, align 4
  %cmp52 = icmp sle i32 %20, 460800
  br i1 %cmp52, label %if.then53, label %if.end54

if.then53:                                        ; preds = %if.end51
  store i32 4100, ptr %spd, align 4
  br label %done

if.end54:                                         ; preds = %if.end51
  %21 = load i32, ptr %speed.addr, align 4
  %cmp55 = icmp sle i32 %21, 500000
  br i1 %cmp55, label %if.then56, label %if.end57

if.then56:                                        ; preds = %if.end54
  store i32 4101, ptr %spd, align 4
  br label %done

if.end57:                                         ; preds = %if.end54
  %22 = load i32, ptr %speed.addr, align 4
  %cmp58 = icmp sle i32 %22, 576000
  br i1 %cmp58, label %if.then59, label %if.end60

if.then59:                                        ; preds = %if.end57
  store i32 4102, ptr %spd, align 4
  br label %done

if.end60:                                         ; preds = %if.end57
  %23 = load i32, ptr %speed.addr, align 4
  %cmp61 = icmp sle i32 %23, 921600
  br i1 %cmp61, label %if.then62, label %if.end63

if.then62:                                        ; preds = %if.end60
  store i32 4103, ptr %spd, align 4
  br label %done

if.end63:                                         ; preds = %if.end60
  %24 = load i32, ptr %speed.addr, align 4
  %cmp64 = icmp sle i32 %24, 1000000
  br i1 %cmp64, label %if.then65, label %if.end66

if.then65:                                        ; preds = %if.end63
  store i32 4104, ptr %spd, align 4
  br label %done

if.end66:                                         ; preds = %if.end63
  %25 = load i32, ptr %speed.addr, align 4
  %cmp67 = icmp sle i32 %25, 1152000
  br i1 %cmp67, label %if.then68, label %if.end69

if.then68:                                        ; preds = %if.end66
  store i32 4105, ptr %spd, align 4
  br label %done

if.end69:                                         ; preds = %if.end66
  %26 = load i32, ptr %speed.addr, align 4
  %cmp70 = icmp sle i32 %26, 1500000
  br i1 %cmp70, label %if.then71, label %if.end72

if.then71:                                        ; preds = %if.end69
  store i32 4106, ptr %spd, align 4
  br label %done

if.end72:                                         ; preds = %if.end69
  %27 = load i32, ptr %speed.addr, align 4
  %cmp73 = icmp sle i32 %27, 2000000
  br i1 %cmp73, label %if.then74, label %if.end75

if.then74:                                        ; preds = %if.end72
  store i32 4107, ptr %spd, align 4
  br label %done

if.end75:                                         ; preds = %if.end72
  %28 = load i32, ptr %speed.addr, align 4
  %cmp76 = icmp sle i32 %28, 2500000
  br i1 %cmp76, label %if.then77, label %if.end78

if.then77:                                        ; preds = %if.end75
  store i32 4108, ptr %spd, align 4
  br label %done

if.end78:                                         ; preds = %if.end75
  %29 = load i32, ptr %speed.addr, align 4
  %cmp79 = icmp sle i32 %29, 3000000
  br i1 %cmp79, label %if.then80, label %if.end81

if.then80:                                        ; preds = %if.end78
  store i32 4109, ptr %spd, align 4
  br label %done

if.end81:                                         ; preds = %if.end78
  %30 = load i32, ptr %speed.addr, align 4
  %cmp82 = icmp sle i32 %30, 3500000
  br i1 %cmp82, label %if.then83, label %if.end84

if.then83:                                        ; preds = %if.end81
  store i32 4110, ptr %spd, align 4
  br label %done

if.end84:                                         ; preds = %if.end81
  %31 = load i32, ptr %speed.addr, align 4
  %cmp85 = icmp sle i32 %31, 4000000
  br i1 %cmp85, label %if.then86, label %if.end87

if.then86:                                        ; preds = %if.end84
  store i32 4111, ptr %spd, align 4
  br label %done

if.end87:                                         ; preds = %if.end84
  store i32 4098, ptr %spd, align 4
  br label %done

done:                                             ; preds = %if.end87, %if.then86, %if.then83, %if.then80, %if.then77, %if.then74, %if.then71, %if.then68, %if.then65, %if.then62, %if.then59, %if.then56, %if.then53, %if.then50, %if.then47, %if.then44, %if.then41, %if.then38, %if.then35, %if.then32, %if.then29, %if.then26, %if.then23, %if.then20, %if.then17, %if.then14, %if.then11, %if.then8, %if.then5, %if.then2, %if.then
  %32 = load i32, ptr %spd, align 4
  %call88 = call i32 @cfsetispeed(ptr noundef %tty, i32 noundef %32) #8
  %33 = load i32, ptr %spd, align 4
  %call89 = call i32 @cfsetospeed(ptr noundef %tty, i32 noundef %33) #8
  %c_iflag = getelementptr inbounds %struct.termios, ptr %tty, i32 0, i32 0
  %34 = load i32, ptr %c_iflag, align 4
  %and = and i32 %34, -1516
  store i32 %and, ptr %c_iflag, align 4
  %c_oflag = getelementptr inbounds %struct.termios, ptr %tty, i32 0, i32 1
  %35 = load i32, ptr %c_oflag, align 4
  %and90 = and i32 %35, -2
  store i32 %and90, ptr %c_oflag, align 4
  %c_lflag = getelementptr inbounds %struct.termios, ptr %tty, i32 0, i32 3
  %36 = load i32, ptr %c_lflag, align 4
  %and91 = and i32 %36, -32844
  store i32 %and91, ptr %c_lflag, align 4
  %c_cflag = getelementptr inbounds %struct.termios, ptr %tty, i32 0, i32 2
  %37 = load i32, ptr %c_cflag, align 4
  %and92 = and i32 %37, 2147482767
  store i32 %and92, ptr %c_cflag, align 4
  %38 = load i32, ptr %data_bits.addr, align 4
  switch i32 %38, label %sw.default [
    i32 8, label %sw.bb
    i32 7, label %sw.bb94
    i32 6, label %sw.bb97
    i32 5, label %sw.bb100
  ]

sw.default:                                       ; preds = %done
  br label %sw.bb

sw.bb:                                            ; preds = %sw.default, %done
  %c_cflag93 = getelementptr inbounds %struct.termios, ptr %tty, i32 0, i32 2
  %39 = load i32, ptr %c_cflag93, align 4
  %or = or i32 %39, 48
  store i32 %or, ptr %c_cflag93, align 4
  br label %sw.epilog

sw.bb94:                                          ; preds = %done
  %c_cflag95 = getelementptr inbounds %struct.termios, ptr %tty, i32 0, i32 2
  %40 = load i32, ptr %c_cflag95, align 4
  %or96 = or i32 %40, 32
  store i32 %or96, ptr %c_cflag95, align 4
  br label %sw.epilog

sw.bb97:                                          ; preds = %done
  %c_cflag98 = getelementptr inbounds %struct.termios, ptr %tty, i32 0, i32 2
  %41 = load i32, ptr %c_cflag98, align 4
  %or99 = or i32 %41, 16
  store i32 %or99, ptr %c_cflag98, align 4
  br label %sw.epilog

sw.bb100:                                         ; preds = %done
  %c_cflag101 = getelementptr inbounds %struct.termios, ptr %tty, i32 0, i32 2
  %42 = load i32, ptr %c_cflag101, align 4
  %or102 = or i32 %42, 0
  store i32 %or102, ptr %c_cflag101, align 4
  br label %sw.epilog

sw.epilog:                                        ; preds = %sw.bb100, %sw.bb97, %sw.bb94, %sw.bb
  %43 = load i32, ptr %parity.addr, align 4
  switch i32 %43, label %sw.default103 [
    i32 78, label %sw.bb104
    i32 69, label %sw.bb105
    i32 79, label %sw.bb108
  ]

sw.default103:                                    ; preds = %sw.epilog
  br label %sw.bb104

sw.bb104:                                         ; preds = %sw.default103, %sw.epilog
  br label %sw.epilog111

sw.bb105:                                         ; preds = %sw.epilog
  %c_cflag106 = getelementptr inbounds %struct.termios, ptr %tty, i32 0, i32 2
  %44 = load i32, ptr %c_cflag106, align 4
  %or107 = or i32 %44, 256
  store i32 %or107, ptr %c_cflag106, align 4
  br label %sw.epilog111

sw.bb108:                                         ; preds = %sw.epilog
  %c_cflag109 = getelementptr inbounds %struct.termios, ptr %tty, i32 0, i32 2
  %45 = load i32, ptr %c_cflag109, align 4
  %or110 = or i32 %45, 768
  store i32 %or110, ptr %c_cflag109, align 4
  br label %sw.epilog111

sw.epilog111:                                     ; preds = %sw.bb108, %sw.bb105, %sw.bb104
  %46 = load i32, ptr %stop_bits.addr, align 4
  %cmp112 = icmp eq i32 %46, 2
  br i1 %cmp112, label %if.then113, label %if.end116

if.then113:                                       ; preds = %sw.epilog111
  %c_cflag114 = getelementptr inbounds %struct.termios, ptr %tty, i32 0, i32 2
  %47 = load i32, ptr %c_cflag114, align 4
  %or115 = or i32 %47, 64
  store i32 %or115, ptr %c_cflag114, align 4
  br label %if.end116

if.end116:                                        ; preds = %if.then113, %sw.epilog111
  %48 = load i32, ptr %fd.addr, align 4
  %call117 = call i32 @tcsetattr(i32 noundef %48, i32 noundef 0, ptr noundef %tty) #8
  ret void
}