; Function Attrs: nounwind sspstrong uwtable
define internal fastcc void @tty_serial_init(i32 noundef %fd, i32 noundef %speed, i32 noundef %parity, i32 noundef %data_bits, i32 noundef %stop_bits) unnamed_addr #0 {
entry:
  %tty = alloca %struct.termios, align 4
  call void @llvm.memset.p0.i64(ptr noundef nonnull align 4 dereferenceable(60) %tty, i8 0, i64 60, i1 false)
  %call = call i32 @tcgetattr(i32 noundef %fd, ptr noundef nonnull %tty) #7
  %mul = mul i32 %speed, 10
  %cmp = icmp slt i32 %mul, 561
  br i1 %cmp, label %done, label %if.end

if.end:                                           ; preds = %entry
  %cmp1 = icmp samesign ult i32 %mul, 836
  br i1 %cmp1, label %done, label %if.end3

if.end3:                                          ; preds = %if.end
  %cmp4 = icmp samesign ult i32 %mul, 1221
  br i1 %cmp4, label %done, label %if.end6

if.end6:                                          ; preds = %if.end3
  %cmp7 = icmp samesign ult i32 %mul, 1485
  br i1 %cmp7, label %done, label %if.end9

if.end9:                                          ; preds = %if.end6
  %cmp10 = icmp samesign ult i32 %mul, 1661
  br i1 %cmp10, label %done, label %if.end12

if.end12:                                         ; preds = %if.end9
  %cmp13 = icmp samesign ult i32 %mul, 2211
  br i1 %cmp13, label %done, label %if.end15

if.end15:                                         ; preds = %if.end12
  %cmp16 = icmp samesign ult i32 %mul, 3311
  br i1 %cmp16, label %done, label %if.end18

if.end18:                                         ; preds = %if.end15
  %cmp19 = icmp samesign ult i32 %mul, 6611
  br i1 %cmp19, label %done, label %if.end21

if.end21:                                         ; preds = %if.end18
  %cmp22 = icmp samesign ult i32 %mul, 13211
  br i1 %cmp22, label %done, label %if.end24

if.end24:                                         ; preds = %if.end21
  %cmp25 = icmp samesign ult i32 %mul, 19811
  br i1 %cmp25, label %done, label %if.end27

if.end27:                                         ; preds = %if.end24
  %cmp28 = icmp samesign ult i32 %mul, 26411
  br i1 %cmp28, label %done, label %if.end30

if.end30:                                         ; preds = %if.end27
  %cmp31 = icmp samesign ult i32 %mul, 52811
  br i1 %cmp31, label %done, label %if.end33

if.end33:                                         ; preds = %if.end30
  %cmp34 = icmp samesign ult i32 %mul, 105611
  br i1 %cmp34, label %done, label %if.end36

if.end36:                                         ; preds = %if.end33
  %cmp37 = icmp samesign ult i32 %mul, 211211
  br i1 %cmp37, label %done, label %if.end39

if.end39:                                         ; preds = %if.end36
  %cmp40 = icmp samesign ult i32 %mul, 422411
  br i1 %cmp40, label %done, label %if.end42

if.end42:                                         ; preds = %if.end39
  %cmp43 = icmp samesign ult i32 %mul, 633611
  br i1 %cmp43, label %done, label %if.end45

if.end45:                                         ; preds = %if.end42
  %cmp46 = icmp samesign ult i32 %mul, 1267211
  br i1 %cmp46, label %done, label %if.end48

if.end48:                                         ; preds = %if.end45
  %cmp49 = icmp samesign ult i32 %mul, 2534411
  br i1 %cmp49, label %done, label %if.end51

if.end51:                                         ; preds = %if.end48
  %cmp52 = icmp samesign ult i32 %mul, 5068811
  br i1 %cmp52, label %done, label %if.end54

if.end54:                                         ; preds = %if.end51
  %cmp55 = icmp samesign ult i32 %mul, 5500011
  br i1 %cmp55, label %done, label %if.end57

if.end57:                                         ; preds = %if.end54
  %cmp58 = icmp samesign ult i32 %mul, 6336011
  br i1 %cmp58, label %done, label %if.end60

if.end60:                                         ; preds = %if.end57
  %cmp61 = icmp samesign ult i32 %mul, 10137611
  br i1 %cmp61, label %done, label %if.end63

if.end63:                                         ; preds = %if.end60
  %cmp64 = icmp samesign ult i32 %mul, 11000011
  br i1 %cmp64, label %done, label %if.end66

if.end66:                                         ; preds = %if.end63
  %cmp67 = icmp samesign ult i32 %mul, 12672011
  br i1 %cmp67, label %done, label %if.end69

if.end69:                                         ; preds = %if.end66
  %cmp70 = icmp samesign ult i32 %mul, 16500011
  br i1 %cmp70, label %done, label %if.end72

if.end72:                                         ; preds = %if.end69
  %cmp73 = icmp samesign ult i32 %mul, 22000011
  br i1 %cmp73, label %done, label %if.end75

if.end75:                                         ; preds = %if.end72
  %cmp76 = icmp samesign ult i32 %mul, 27500011
  br i1 %cmp76, label %done, label %if.end78

if.end78:                                         ; preds = %if.end75
  %cmp79 = icmp samesign ult i32 %mul, 33000011
  br i1 %cmp79, label %done, label %if.end81

if.end81:                                         ; preds = %if.end78
  %cmp82 = icmp samesign ult i32 %mul, 38500011
  br i1 %cmp82, label %done, label %if.end84

if.end84:                                         ; preds = %if.end81
  %cmp85 = icmp samesign ult i32 %mul, 44000011
  %. = select i1 %cmp85, i32 4111, i32 4098
  br label %done

done:                                             ; preds = %if.end84, %if.end81, %if.end78, %if.end75, %if.end72, %if.end69, %if.end66, %if.end63, %if.end60, %if.end57, %if.end54, %if.end51, %if.end48, %if.end45, %if.end42, %if.end39, %if.end36, %if.end33, %if.end30, %if.end27, %if.end24, %if.end21, %if.end18, %if.end15, %if.end12, %if.end9, %if.end6, %if.end3, %if.end, %entry
  %spd.0 = phi i32 [ 1, %entry ], [ 2, %if.end ], [ 3, %if.end3 ], [ 4, %if.end6 ], [ 5, %if.end9 ], [ 6, %if.end12 ], [ 7, %if.end15 ], [ 8, %if.end18 ], [ 9, %if.end21 ], [ 10, %if.end24 ], [ 11, %if.end27 ], [ 12, %if.end30 ], [ 13, %if.end33 ], [ 14, %if.end36 ], [ 15, %if.end39 ], [ 4097, %if.end42 ], [ 4098, %if.end45 ], [ 4099, %if.end48 ], [ 4100, %if.end51 ], [ 4101, %if.end54 ], [ 4102, %if.end57 ], [ 4103, %if.end60 ], [ 4104, %if.end63 ], [ 4105, %if.end66 ], [ 4106, %if.end69 ], [ 4107, %if.end72 ], [ 4108, %if.end75 ], [ 4109, %if.end78 ], [ 4110, %if.end81 ], [ %., %if.end84 ]
  %call88 = call i32 @cfsetispeed(ptr noundef nonnull %tty, i32 noundef %spd.0) #7
  %call89 = call i32 @cfsetospeed(ptr noundef nonnull %tty, i32 noundef %spd.0) #7
  %0 = load i32, ptr %tty, align 4
  %and = and i32 %0, -1516
  store i32 %and, ptr %tty, align 4
  %c_oflag = getelementptr inbounds nuw i8, ptr %tty, i64 4
  %1 = load i32, ptr %c_oflag, align 4
  %and90 = and i32 %1, -2
  store i32 %and90, ptr %c_oflag, align 4
  %c_lflag = getelementptr inbounds nuw i8, ptr %tty, i64 12
  %2 = load i32, ptr %c_lflag, align 4
  %and91 = and i32 %2, -32844
  store i32 %and91, ptr %c_lflag, align 4
  %c_cflag = getelementptr inbounds nuw i8, ptr %tty, i64 8
  %3 = load i32, ptr %c_cflag, align 4
  %and92 = and i32 %3, 2147482767
  switch i32 %data_bits, label %sw.bb [
    i32 5, label %sw.epilog
    i32 7, label %sw.bb94
    i32 6, label %sw.bb97
  ]

sw.bb:                                            ; preds = %done
  %or = or disjoint i32 %and92, 48
  br label %sw.epilog

sw.bb94:                                          ; preds = %done
  %or96 = or disjoint i32 %and92, 32
  br label %sw.epilog

sw.bb97:                                          ; preds = %done
  %or99 = or disjoint i32 %and92, 16
  br label %sw.epilog

sw.epilog:                                        ; preds = %done, %sw.bb97, %sw.bb94, %sw.bb
  %and92.sink = phi i32 [ %or99, %sw.bb97 ], [ %or96, %sw.bb94 ], [ %or, %sw.bb ], [ %and92, %done ]
  store i32 %and92.sink, ptr %c_cflag, align 4
  switch i32 %parity, label %sw.epilog111 [
    i32 79, label %sw.bb108
    i32 69, label %sw.epilog111.sink.split
  ]

sw.bb108:                                         ; preds = %sw.epilog
  br label %sw.epilog111.sink.split

sw.epilog111.sink.split:                          ; preds = %sw.epilog, %sw.bb108
  %.sink = phi i32 [ 768, %sw.bb108 ], [ 256, %sw.epilog ]
  %or110 = or i32 %and92.sink, %.sink
  store i32 %or110, ptr %c_cflag, align 4
  br label %sw.epilog111

sw.epilog111:                                     ; preds = %sw.epilog111.sink.split, %sw.epilog
  %4 = phi i32 [ %and92.sink, %sw.epilog ], [ %or110, %sw.epilog111.sink.split ]
  %cmp112 = icmp eq i32 %stop_bits, 2
  br i1 %cmp112, label %if.then113, label %if.end116

if.then113:                                       ; preds = %sw.epilog111
  %or115 = or i32 %4, 64
  store i32 %or115, ptr %c_cflag, align 4
  br label %if.end116

if.end116:                                        ; preds = %if.then113, %sw.epilog111
  %call117 = call i32 @tcsetattr(i32 noundef %fd, i32 noundef 0, ptr noundef nonnull %tty) #7
  ret void
}